; Function Attrs: nounwind uwtable
define ptr @l_Lake_MainM_tryCatchExit___rarg(ptr noundef %0, ptr noundef %1, ptr noundef %2) #0 {
  %4 = tail call ptr @lean_apply_1(ptr noundef %1, ptr noundef %2) #3
  %5 = ptrtoint ptr %4 to i64
  %6 = and i64 %5, 1
  %.not.i19 = icmp eq i64 %6, 0
  br i1 %.not.i19, label %10, label %7

7:                                                ; preds = %3
  %8 = lshr i64 %5, 1
  %9 = trunc i64 %8 to i32
  br label %lean_obj_tag.exit

10:                                               ; preds = %3
  %11 = getelementptr i8, ptr %4, i64 4
  %.val.i = load i32, ptr %11, align 4
  %12 = lshr i32 %.val.i, 24
  br label %lean_obj_tag.exit

lean_obj_tag.exit:                                ; preds = %7, %10
  %.0.i = phi i32 [ %9, %7 ], [ %12, %10 ]
  %13 = icmp eq i32 %.0.i, 0
  br i1 %13, label %14, label %24

14:                                               ; preds = %lean_obj_tag.exit
  %15 = ptrtoint ptr %0 to i64
  %16 = and i64 %15, 1
  %.not27 = icmp eq i64 %16, 0
  br i1 %.not27, label %17, label %lean_dec.exit16

17:                                               ; preds = %14
  %18 = load i32, ptr %0, align 4, !tbaa !4
  %19 = icmp sgt i32 %18, 1
  br i1 %19, label %20, label %22, !prof !13

20:                                               ; preds = %17
  %21 = add nsw i32 %18, -1
  store i32 %21, ptr %0, align 4, !tbaa !4
  br label %lean_dec.exit16

22:                                               ; preds = %17
  %.not.i = icmp eq i32 %18, 0
  br i1 %.not.i, label %lean_dec.exit16, label %23

23:                                               ; preds = %22
  tail call void @lean_dec_ref_cold(ptr noundef nonnull %0) #3
  br label %lean_dec.exit16

24:                                               ; preds = %lean_obj_tag.exit
  %25 = getelementptr inbounds nuw i8, ptr %4, i64 8
  %26 = load ptr, ptr %25, align 8, !tbaa !9
  %27 = ptrtoint ptr %26 to i64
  %28 = and i64 %27, 1
  %.not = icmp eq i64 %28, 0
  br i1 %.not, label %29, label %lean_inc.exit15

29:                                               ; preds = %24
  %.val.i20 = load i32, ptr %26, align 4, !tbaa !4
  %30 = icmp sgt i32 %.val.i20, 0
  br i1 %30, label %31, label %33, !prof !13

31:                                               ; preds = %29
  %32 = add nuw i32 %.val.i20, 1
  store i32 %32, ptr %26, align 4, !tbaa !4
  br label %lean_inc.exit15

33:                                               ; preds = %29
  %.not.i21 = icmp eq i32 %.val.i20, 0
  br i1 %.not.i21, label %lean_inc.exit15, label %34

34:                                               ; preds = %33
  tail call void @lean_inc_ref_cold(ptr noundef nonnull %26) #3
  br label %lean_inc.exit15

lean_inc.exit15:                                  ; preds = %34, %33, %31, %24
  %35 = getelementptr inbounds nuw i8, ptr %4, i64 16
  %36 = load ptr, ptr %35, align 8, !tbaa !9
  %37 = ptrtoint ptr %36 to i64
  %38 = and i64 %37, 1
  %.not25 = icmp eq i64 %38, 0
  br i1 %.not25, label %39, label %lean_inc.exit

39:                                               ; preds = %lean_inc.exit15
  %.val.i22 = load i32, ptr %36, align 4, !tbaa !4
  %40 = icmp sgt i32 %.val.i22, 0
  br i1 %40, label %41, label %43, !prof !13

41:                                               ; preds = %39
  %42 = add nuw i32 %.val.i22, 1
  store i32 %42, ptr %36, align 4, !tbaa !4
  br label %lean_inc.exit

43:                                               ; preds = %39
  %.not.i23 = icmp eq i32 %.val.i22, 0
  br i1 %.not.i23, label %lean_inc.exit, label %44

44:                                               ; preds = %43
  tail call void @lean_inc_ref_cold(ptr noundef nonnull %36) #3
  br label %lean_inc.exit

lean_inc.exit:                                    ; preds = %44, %43, %41, %lean_inc.exit15
  br i1 %.not.i19, label %45, label %lean_dec.exit

45:                                               ; preds = %lean_inc.exit
  %46 = load i32, ptr %4, align 4, !tbaa !4
  %47 = icmp sgt i32 %46, 1
  br i1 %47, label %48, label %50, !prof !13

48:                                               ; preds = %45
  %49 = add nsw i32 %46, -1
  store i32 %49, ptr %4, align 4, !tbaa !4
  br label %lean_dec.exit

50:                                               ; preds = %45
  %.not.i17 = icmp eq i32 %46, 0
  br i1 %.not.i17, label %lean_dec.exit, label %51

51:                                               ; preds = %50
  tail call void @lean_dec_ref_cold(ptr noundef nonnull %4) #3
  br label %lean_dec.exit

lean_dec.exit:                                    ; preds = %51, %50, %48, %lean_inc.exit
  %52 = tail call ptr @lean_apply_2(ptr noundef %0, ptr noundef %26, ptr noundef %36) #3
  br label %lean_dec.exit16

lean_dec.exit16:                                  ; preds = %14, %20, %22, %23, %lean_dec.exit
  %.0 = phi ptr [ %52, %lean_dec.exit ], [ %4, %23 ], [ %4, %22 ], [ %4, %20 ], [ %4, %14 ]
  ret ptr %.0
}